; Function Attrs: mustprogress nounwind uwtable
define dso_local void @_ZN4llvm18UniqueMachineInstr7ProfileERNS_16FoldingSetNodeIDE(ptr nocapture noundef nonnull readonly align 8 dereferenceable(16) %0, ptr noundef nonnull align 8 dereferenceable(144) %1) local_unnamed_addr #0 align 2 {
  %3 = alloca %"class.llvm::GISelInstProfileBuilder", align 8
  %4 = getelementptr inbounds nuw i8, ptr %0, i64 8
  %5 = load ptr, ptr %4, align 8
  %6 = tail call noundef ptr @_ZNK4llvm12MachineInstr5getMFEv(ptr noundef nonnull align 8 dereferenceable(70) %5) #17
  %7 = getelementptr inbounds nuw i8, ptr %6, i64 32
  %8 = load ptr, ptr %7, align 8
  store ptr %1, ptr %3, align 8
  %9 = getelementptr inbounds nuw i8, ptr %3, i64 8
  store ptr %8, ptr %9, align 8
  %10 = load ptr, ptr %4, align 8
  %11 = call noundef nonnull align 8 dereferenceable(16) ptr @_ZNK4llvm23GISelInstProfileBuilder9addNodeIDEPKNS_12MachineInstrE(ptr noundef nonnull align 8 dereferenceable(16) %3, ptr noundef %10)
  ret void
}